target datalayout = "e-m:e-p270:32:32-p271:32:32-p272:64:64-i64:64-i128:128-f80:128-n8:16:32:64-S128"
target triple = "x86_64-pc-linux-gnu"

%struct._mtp3_addr_pc_t = type { i32, i32, i8 }

@.str.22 = private unnamed_addr constant [3 x i8] c"%u\00", align 1
@mtp3_addr_fmt = internal global i32 5, align 4
@.str.139 = private unnamed_addr constant [3 x i8] c"%x\00", align 1
@.str.140 = private unnamed_addr constant [6 x i8] c"%u:%u\00", align 1
@.str.141 = private unnamed_addr constant [6 x i8] c"%u:%x\00", align 1

; Function Attrs: null_pointer_is_valid sspstrong uwtable
define internal void @mtp3_addr_to_str_buf(ptr noundef %0, ptr noundef %1, i32 noundef %2) #0 {
  %4 = alloca ptr, align 8
  %5 = alloca ptr, align 8
  %6 = alloca i32, align 4
  store ptr %0, ptr %4, align 8
  store ptr %1, ptr %5, align 8
  store i32 %2, ptr %6, align 4
  %7 = load i32, ptr @mtp3_addr_fmt, align 4
  switch i32 %7, label %184 [
    i32 1, label %8
    i32 2, label %46
    i32 3, label %84
    i32 4, label %134
    i32 5, label %185
  ]

8:                                                ; preds = %3
  %9 = load ptr, ptr %4, align 8
  %10 = getelementptr inbounds nuw %struct._mtp3_addr_pc_t, ptr %9, i32 0, i32 0
  %11 = load i32, ptr %10, align 4
  switch i32 %11, label %34 [
    i32 1, label %12
    i32 4, label %23
  ]

12:                                               ; preds = %8
  %13 = load ptr, ptr %5, align 8
  %14 = load i32, ptr %6, align 4
  %15 = sext i32 %14 to i64
  %16 = load ptr, ptr %5, align 8
  %17 = call i64 @llvm.objectsize.i64.p0(ptr %16, i1 false, i1 true, i1 true)
  %18 = load ptr, ptr %4, align 8
  %19 = getelementptr inbounds nuw %struct._mtp3_addr_pc_t, ptr %18, i32 0, i32 1
  %20 = load i32, ptr %19, align 4
  %21 = and i32 %20, 16383
  %22 = call i32 (ptr, i64, i32, i64, ptr, ...) @__snprintf_chk(ptr noundef %13, i64 noundef %15, i32 noundef 2, i64 noundef %17, ptr noundef @.str.22, i32 noundef %21)
  br label %45

23:                                               ; preds = %8
  %24 = load ptr, ptr %5, align 8
  %25 = load i32, ptr %6, align 4
  %26 = sext i32 %25 to i64
  %27 = load ptr, ptr %5, align 8
  %28 = call i64 @llvm.objectsize.i64.p0(ptr %27, i1 false, i1 true, i1 true)
  %29 = load ptr, ptr %4, align 8
  %30 = getelementptr inbounds nuw %struct._mtp3_addr_pc_t, ptr %29, i32 0, i32 1
  %31 = load i32, ptr %30, align 4
  %32 = and i32 %31, 65535
  %33 = call i32 (ptr, i64, i32, i64, ptr, ...) @__snprintf_chk(ptr noundef %24, i64 noundef %26, i32 noundef 2, i64 noundef %28, ptr noundef @.str.22, i32 noundef %32)
  br label %45

34:                                               ; preds = %8
  %35 = load ptr, ptr %5, align 8
  %36 = load i32, ptr %6, align 4
  %37 = sext i32 %36 to i64
  %38 = load ptr, ptr %5, align 8
  %39 = call i64 @llvm.objectsize.i64.p0(ptr %38, i1 false, i1 true, i1 true)
  %40 = load ptr, ptr %4, align 8
  %41 = getelementptr inbounds nuw %struct._mtp3_addr_pc_t, ptr %40, i32 0, i32 1
  %42 = load i32, ptr %41, align 4
  %43 = and i32 %42, 16777215
  %44 = call i32 (ptr, i64, i32, i64, ptr, ...) @__snprintf_chk(ptr noundef %35, i64 noundef %37, i32 noundef 2, i64 noundef %39, ptr noundef @.str.22, i32 noundef %43)
  br label %45

45:                                               ; preds = %34, %23, %12
  br label %191

46:                                               ; preds = %3
  %47 = load ptr, ptr %4, align 8
  %48 = getelementptr inbounds nuw %struct._mtp3_addr_pc_t, ptr %47, i32 0, i32 0
  %49 = load i32, ptr %48, align 4
  switch i32 %49, label %72 [
    i32 1, label %50
    i32 4, label %61
  ]

50:                                               ; preds = %46
  %51 = load ptr, ptr %5, align 8
  %52 = load i32, ptr %6, align 4
  %53 = sext i32 %52 to i64
  %54 = load ptr, ptr %5, align 8
  %55 = call i64 @llvm.objectsize.i64.p0(ptr %54, i1 false, i1 true, i1 true)
  %56 = load ptr, ptr %4, align 8
  %57 = getelementptr inbounds nuw %struct._mtp3_addr_pc_t, ptr %56, i32 0, i32 1
  %58 = load i32, ptr %57, align 4
  %59 = and i32 %58, 16383
  %60 = call i32 (ptr, i64, i32, i64, ptr, ...) @__snprintf_chk(ptr noundef %51, i64 noundef %53, i32 noundef 2, i64 noundef %55, ptr noundef @.str.139, i32 noundef %59)
  br label %83

61:                                               ; preds = %46
  %62 = load ptr, ptr %5, align 8
  %63 = load i32, ptr %6, align 4
  %64 = sext i32 %63 to i64
  %65 = load ptr, ptr %5, align 8
  %66 = call i64 @llvm.objectsize.i64.p0(ptr %65, i1 false, i1 true, i1 true)
  %67 = load ptr, ptr %4, align 8
  %68 = getelementptr inbounds nuw %struct._mtp3_addr_pc_t, ptr %67, i32 0, i32 1
  %69 = load i32, ptr %68, align 4
  %70 = and i32 %69, 65535
  %71 = call i32 (ptr, i64, i32, i64, ptr, ...) @__snprintf_chk(ptr noundef %62, i64 noundef %64, i32 noundef 2, i64 noundef %66, ptr noundef @.str.139, i32 noundef %70)
  br label %83

72:                                               ; preds = %46
  %73 = load ptr, ptr %5, align 8
  %74 = load i32, ptr %6, align 4
  %75 = sext i32 %74 to i64
  %76 = load ptr, ptr %5, align 8
  %77 = call i64 @llvm.objectsize.i64.p0(ptr %76, i1 false, i1 true, i1 true)
  %78 = load ptr, ptr %4, align 8
  %79 = getelementptr inbounds nuw %struct._mtp3_addr_pc_t, ptr %78, i32 0, i32 1
  %80 = load i32, ptr %79, align 4
  %81 = and i32 %80, 16777215
  %82 = call i32 (ptr, i64, i32, i64, ptr, ...) @__snprintf_chk(ptr noundef %73, i64 noundef %75, i32 noundef 2, i64 noundef %77, ptr noundef @.str.139, i32 noundef %81)
  br label %83

83:                                               ; preds = %72, %61, %50
  br label %191

84:                                               ; preds = %3
  %85 = load ptr, ptr %4, align 8
  %86 = getelementptr inbounds nuw %struct._mtp3_addr_pc_t, ptr %85, i32 0, i32 0
  %87 = load i32, ptr %86, align 4
  switch i32 %87, label %118 [
    i32 1, label %88
    i32 4, label %103
  ]

88:                                               ; preds = %84
  %89 = load ptr, ptr %5, align 8
  %90 = load i32, ptr %6, align 4
  %91 = sext i32 %90 to i64
  %92 = load ptr, ptr %5, align 8
  %93 = call i64 @llvm.objectsize.i64.p0(ptr %92, i1 false, i1 true, i1 true)
  %94 = load ptr, ptr %4, align 8
  %95 = getelementptr inbounds nuw %struct._mtp3_addr_pc_t, ptr %94, i32 0, i32 2
  %96 = load i8, ptr %95, align 4
  %97 = zext i8 %96 to i32
  %98 = load ptr, ptr %4, align 8
  %99 = getelementptr inbounds nuw %struct._mtp3_addr_pc_t, ptr %98, i32 0, i32 1
  %100 = load i32, ptr %99, align 4
  %101 = and i32 %100, 16383
  %102 = call i32 (ptr, i64, i32, i64, ptr, ...) @__snprintf_chk(ptr noundef %89, i64 noundef %91, i32 noundef 2, i64 noundef %93, ptr noundef @.str.140, i32 noundef %97, i32 noundef %101)
  br label %133

103:                                              ; preds = %84
  %104 = load ptr, ptr %5, align 8
  %105 = load i32, ptr %6, align 4
  %106 = sext i32 %105 to i64
  %107 = load ptr, ptr %5, align 8
  %108 = call i64 @llvm.objectsize.i64.p0(ptr %107, i1 false, i1 true, i1 true)
  %109 = load ptr, ptr %4, align 8
  %110 = getelementptr inbounds nuw %struct._mtp3_addr_pc_t, ptr %109, i32 0, i32 2
  %111 = load i8, ptr %110, align 4
  %112 = zext i8 %111 to i32
  %113 = load ptr, ptr %4, align 8
  %114 = getelementptr inbounds nuw %struct._mtp3_addr_pc_t, ptr %113, i32 0, i32 1
  %115 = load i32, ptr %114, align 4
  %116 = and i32 %115, 65535
  %117 = call i32 (ptr, i64, i32, i64, ptr, ...) @__snprintf_chk(ptr noundef %104, i64 noundef %106, i32 noundef 2, i64 noundef %108, ptr noundef @.str.140, i32 noundef %112, i32 noundef %116)
  br label %133

118:                                              ; preds = %84
  %119 = load ptr, ptr %5, align 8
  %120 = load i32, ptr %6, align 4
  %121 = sext i32 %120 to i64
  %122 = load ptr, ptr %5, align 8
  %123 = call i64 @llvm.objectsize.i64.p0(ptr %122, i1 false, i1 true, i1 true)
  %124 = load ptr, ptr %4, align 8
  %125 = getelementptr inbounds nuw %struct._mtp3_addr_pc_t, ptr %124, i32 0, i32 2
  %126 = load i8, ptr %125, align 4
  %127 = zext i8 %126 to i32
  %128 = load ptr, ptr %4, align 8
  %129 = getelementptr inbounds nuw %struct._mtp3_addr_pc_t, ptr %128, i32 0, i32 1
  %130 = load i32, ptr %129, align 4
  %131 = and i32 %130, 16777215
  %132 = call i32 (ptr, i64, i32, i64, ptr, ...) @__snprintf_chk(ptr noundef %119, i64 noundef %121, i32 noundef 2, i64 noundef %123, ptr noundef @.str.140, i32 noundef %127, i32 noundef %131)
  br label %133

133:                                              ; preds = %118, %103, %88
  br label %191

134:                                              ; preds = %3
  %135 = load ptr, ptr %4, align 8
  %136 = getelementptr inbounds nuw %struct._mtp3_addr_pc_t, ptr %135, i32 0, i32 0
  %137 = load i32, ptr %136, align 4
  switch i32 %137, label %168 [
    i32 1, label %138
    i32 4, label %153
  ]

138:                                              ; preds = %134
  %139 = load ptr, ptr %5, align 8
  %140 = load i32, ptr %6, align 4
  %141 = sext i32 %140 to i64
  %142 = load ptr, ptr %5, align 8
  %143 = call i64 @llvm.objectsize.i64.p0(ptr %142, i1 false, i1 true, i1 true)
  %144 = load ptr, ptr %4, align 8
  %145 = getelementptr inbounds nuw %struct._mtp3_addr_pc_t, ptr %144, i32 0, i32 2
  %146 = load i8, ptr %145, align 4
  %147 = zext i8 %146 to i32
  %148 = load ptr, ptr %4, align 8
  %149 = getelementptr inbounds nuw %struct._mtp3_addr_pc_t, ptr %148, i32 0, i32 1
  %150 = load i32, ptr %149, align 4
  %151 = and i32 %150, 16383
  %152 = call i32 (ptr, i64, i32, i64, ptr, ...) @__snprintf_chk(ptr noundef %139, i64 noundef %141, i32 noundef 2, i64 noundef %143, ptr noundef @.str.141, i32 noundef %147, i32 noundef %151)
  br label %183

153:                                              ; preds = %134
  %154 = load ptr, ptr %5, align 8
  %155 = load i32, ptr %6, align 4
  %156 = sext i32 %155 to i64
  %157 = load ptr, ptr %5, align 8
  %158 = call i64 @llvm.objectsize.i64.p0(ptr %157, i1 false, i1 true, i1 true)
  %159 = load ptr, ptr %4, align 8
  %160 = getelementptr inbounds nuw %struct._mtp3_addr_pc_t, ptr %159, i32 0, i32 2
  %161 = load i8, ptr %160, align 4
  %162 = zext i8 %161 to i32
  %163 = load ptr, ptr %4, align 8
  %164 = getelementptr inbounds nuw %struct._mtp3_addr_pc_t, ptr %163, i32 0, i32 1
  %165 = load i32, ptr %164, align 4
  %166 = and i32 %165, 65535
  %167 = call i32 (ptr, i64, i32, i64, ptr, ...) @__snprintf_chk(ptr noundef %154, i64 noundef %156, i32 noundef 2, i64 noundef %158, ptr noundef @.str.141, i32 noundef %162, i32 noundef %166)
  br label %183

168:                                              ; preds = %134
  %169 = load ptr, ptr %5, align 8
  %170 = load i32, ptr %6, align 4
  %171 = sext i32 %170 to i64
  %172 = load ptr, ptr %5, align 8
  %173 = call i64 @llvm.objectsize.i64.p0(ptr %172, i1 false, i1 true, i1 true)
  %174 = load ptr, ptr %4, align 8
  %175 = getelementptr inbounds nuw %struct._mtp3_addr_pc_t, ptr %174, i32 0, i32 2
  %176 = load i8, ptr %175, align 4
  %177 = zext i8 %176 to i32
  %178 = load ptr, ptr %4, align 8
  %179 = getelementptr inbounds nuw %struct._mtp3_addr_pc_t, ptr %178, i32 0, i32 1
  %180 = load i32, ptr %179, align 4
  %181 = and i32 %180, 16777215
  %182 = call i32 (ptr, i64, i32, i64, ptr, ...) @__snprintf_chk(ptr noundef %169, i64 noundef %171, i32 noundef 2, i64 noundef %173, ptr noundef @.str.141, i32 noundef %177, i32 noundef %181)
  br label %183

183:                                              ; preds = %168, %153, %138
  br label %191

184:                                              ; preds = %3
  br label %185

185:                                              ; preds = %3, %184
  %186 = load ptr, ptr %4, align 8
  %187 = getelementptr inbounds nuw %struct._mtp3_addr_pc_t, ptr %186, i32 0, i32 1
  %188 = load i32, ptr %187, align 4
  %189 = load ptr, ptr %5, align 8
  %190 = load i32, ptr %6, align 4
  call void @mtp3_pc_to_str_buf(i32 noundef %188, ptr noundef %189, i32 noundef %190)
  br label %191

191:                                              ; preds = %185, %183, %133, %83, %45
  ret void
}