; Function Attrs: null_pointer_is_valid sspstrong uwtable
define internal fastcc void @mtp3_addr_to_str_buf(ptr noundef readonly captures(none) %0, ptr noundef %1, i32 noundef %2) unnamed_addr #0 {
  %4 = load i32, ptr @mtp3_addr_fmt, align 4
  switch i32 %4, label %67 [
    i32 1, label %5
    i32 2, label %19
    i32 3, label %33
    i32 4, label %50
  ]

5:                                                ; preds = %3
  %6 = load i32, ptr %0, align 4
  %7 = sext i32 %2 to i64
  %8 = getelementptr inbounds nuw i8, ptr %0, i64 4
  %9 = load i32, ptr %8, align 4
  switch i32 %6, label %16 [
    i32 1, label %10
    i32 4, label %13
  ]

10:                                               ; preds = %5
  %11 = and i32 %9, 16383
  %12 = tail call i32 (ptr, i64, i32, i64, ptr, ...) @__snprintf_chk(ptr noundef %1, i64 noundef %7, i32 noundef 2, i64 noundef -1, ptr noundef nonnull @.str.22, i32 noundef %11)
  br label %70

13:                                               ; preds = %5
  %14 = and i32 %9, 65535
  %15 = tail call i32 (ptr, i64, i32, i64, ptr, ...) @__snprintf_chk(ptr noundef %1, i64 noundef %7, i32 noundef 2, i64 noundef -1, ptr noundef nonnull @.str.22, i32 noundef %14)
  br label %70

16:                                               ; preds = %5
  %17 = and i32 %9, 16777215
  %18 = tail call i32 (ptr, i64, i32, i64, ptr, ...) @__snprintf_chk(ptr noundef %1, i64 noundef %7, i32 noundef 2, i64 noundef -1, ptr noundef nonnull @.str.22, i32 noundef %17)
  br label %70

19:                                               ; preds = %3
  %20 = load i32, ptr %0, align 4
  %21 = sext i32 %2 to i64
  %22 = getelementptr inbounds nuw i8, ptr %0, i64 4
  %23 = load i32, ptr %22, align 4
  switch i32 %20, label %30 [
    i32 1, label %24
    i32 4, label %27
  ]

24:                                               ; preds = %19
  %25 = and i32 %23, 16383
  %26 = tail call i32 (ptr, i64, i32, i64, ptr, ...) @__snprintf_chk(ptr noundef %1, i64 noundef %21, i32 noundef 2, i64 noundef -1, ptr noundef nonnull @.str.139, i32 noundef %25)
  br label %70

27:                                               ; preds = %19
  %28 = and i32 %23, 65535
  %29 = tail call i32 (ptr, i64, i32, i64, ptr, ...) @__snprintf_chk(ptr noundef %1, i64 noundef %21, i32 noundef 2, i64 noundef -1, ptr noundef nonnull @.str.139, i32 noundef %28)
  br label %70

30:                                               ; preds = %19
  %31 = and i32 %23, 16777215
  %32 = tail call i32 (ptr, i64, i32, i64, ptr, ...) @__snprintf_chk(ptr noundef %1, i64 noundef %21, i32 noundef 2, i64 noundef -1, ptr noundef nonnull @.str.139, i32 noundef %31)
  br label %70

33:                                               ; preds = %3
  %34 = load i32, ptr %0, align 4
  %35 = sext i32 %2 to i64
  %36 = getelementptr inbounds nuw i8, ptr %0, i64 8
  %37 = load i8, ptr %36, align 4
  %38 = zext i8 %37 to i32
  %39 = getelementptr inbounds nuw i8, ptr %0, i64 4
  %40 = load i32, ptr %39, align 4
  switch i32 %34, label %47 [
    i32 1, label %41
    i32 4, label %44
  ]

41:                                               ; preds = %33
  %42 = and i32 %40, 16383
  %43 = tail call i32 (ptr, i64, i32, i64, ptr, ...) @__snprintf_chk(ptr noundef %1, i64 noundef %35, i32 noundef 2, i64 noundef -1, ptr noundef nonnull @.str.140, i32 noundef %38, i32 noundef %42)
  br label %70

44:                                               ; preds = %33
  %45 = and i32 %40, 65535
  %46 = tail call i32 (ptr, i64, i32, i64, ptr, ...) @__snprintf_chk(ptr noundef %1, i64 noundef %35, i32 noundef 2, i64 noundef -1, ptr noundef nonnull @.str.140, i32 noundef %38, i32 noundef %45)
  br label %70

47:                                               ; preds = %33
  %48 = and i32 %40, 16777215
  %49 = tail call i32 (ptr, i64, i32, i64, ptr, ...) @__snprintf_chk(ptr noundef %1, i64 noundef %35, i32 noundef 2, i64 noundef -1, ptr noundef nonnull @.str.140, i32 noundef %38, i32 noundef %48)
  br label %70

50:                                               ; preds = %3
  %51 = load i32, ptr %0, align 4
  %52 = sext i32 %2 to i64
  %53 = getelementptr inbounds nuw i8, ptr %0, i64 8
  %54 = load i8, ptr %53, align 4
  %55 = zext i8 %54 to i32
  %56 = getelementptr inbounds nuw i8, ptr %0, i64 4
  %57 = load i32, ptr %56, align 4
  switch i32 %51, label %64 [
    i32 1, label %58
    i32 4, label %61
  ]

58:                                               ; preds = %50
  %59 = and i32 %57, 16383
  %60 = tail call i32 (ptr, i64, i32, i64, ptr, ...) @__snprintf_chk(ptr noundef %1, i64 noundef %52, i32 noundef 2, i64 noundef -1, ptr noundef nonnull @.str.141, i32 noundef %55, i32 noundef %59)
  br label %70

61:                                               ; preds = %50
  %62 = and i32 %57, 65535
  %63 = tail call i32 (ptr, i64, i32, i64, ptr, ...) @__snprintf_chk(ptr noundef %1, i64 noundef %52, i32 noundef 2, i64 noundef -1, ptr noundef nonnull @.str.141, i32 noundef %55, i32 noundef %62)
  br label %70

64:                                               ; preds = %50
  %65 = and i32 %57, 16777215
  %66 = tail call i32 (ptr, i64, i32, i64, ptr, ...) @__snprintf_chk(ptr noundef %1, i64 noundef %52, i32 noundef 2, i64 noundef -1, ptr noundef nonnull @.str.141, i32 noundef %55, i32 noundef %65)
  br label %70

67:                                               ; preds = %3
  %68 = getelementptr inbounds nuw i8, ptr %0, i64 4
  %69 = load i32, ptr %68, align 4
  tail call fastcc void @mtp3_pc_to_str_buf(i32 noundef %69, ptr noundef %1, i32 noundef %2)
  br label %70

70:                                               ; preds = %58, %61, %64, %41, %44, %47, %24, %27, %30, %10, %13, %16, %67
  ret void
}